Certificate:
    Data:
        Version: 1 (0x0)
        Serial Number: 1 (0x1)
    Signature Algorithm: md5WithRSAEncryption
        Issuer: C=KR, ST=SEOUL, L=SEOUL, O=github/emailAddress=gitvillager@github.com, CN=gitvillager
        Validity
            Not Before: Jun 28 04:04:41 2020 GMT
            Not After : Jun  4 04:04:41 2120 GMT
        Subject: C=KR, ST=SEOUL, O=github, CN=gitvillager/emailAddress=gitvillagere@github.com
        Subject Public Key Info:
            Public Key Algorithm: rsaEncryption
                Public-Key: (1024 bit)
                Modulus:
                    00:b6:3b:8b:2f:d3:41:36:c0:d5:40:c4:22:b8:2e:
                    0e:77:17:35:3c:65:9d:41:fd:da:2e:85:cd:7c:0a:
                    1a:6e:53:c8:98:a7:20:f5:a4:a2:91:7b:51:e7:57:
                    07:a9:ad:2c:59:53:51:92:20:ac:d5:b5:29:e5:b9:
                    fb:b6:d9:78:8d:22:31:a1:89:55:ab:a6:f0:17:f1:
                    f6:13:fe:f1:c4:60:b5:8d:88:26:ff:2a:9f:2e:d8:
                    bd:4e:6b:44:ee:3d:37:a5:2a:d0:84:28:81:03:49:
                    fb:03:eb:f9:8d:00:a5:f4:54:19:b0:ad:b3:6a:48:
                    74:ca:a4:af:35:27:a5:8c:b3
                Exponent: 65537 (0x10001)
    Signature Algorithm: md5WithRSAEncryption
         2a:f2:7a:d5:b5:d5:97:12:ea:4a:3f:68:66:ea:f2:da:2c:7c:
         c3:9a:28:94:5c:b0:26:a4:57:5a:32:ad:5a:fe:59:a0:34:6d:
         49:12:a9:9f:b4:01:cb:43:cb:94:17:3b:a6:c3:ed:7b:9c:e0:
         b0:d3:5a:91:4f:6b:82:82:a4:71:bb:02:d8:ec:c0:f8:c2:4d:
         1c:2e:b4:db:1f:d1:e8:f9:90:97:d3:af:6b:56:c1:6b:0b:41:
         bc:75:84:70:d7:db:cc:70:6e:c5:5a:4d:08:7b:ed:8c:a5:46:
         2f:09:d5:d4:74:06:7e:39:1f:c9:97:f4:74:d5:67:ea:bb:88:
         94:fc
-----BEGIN CERTIFICATE-----
MIICWDCCAcECAQEwDQYJKoZIhvcNAQEEBQAwezELMAkGA1UEBhMCS1IxDjAMBgNV
BAgTBVNFT1VMMQ4wDAYDVQQHEwVTRU9VTDEPMA0GA1UEChMGZ2l0aHViMSUwIwYJ
KoZIhvcNAQkBFhZnaXR2aWxsYWdlckBnaXRodWIuY29tMRQwEgYDVQQDEwtnaXR2
aWxsYWdlcjAgFw0yMDA2MjgwNDA0NDFaGA8yMTIwMDYwNDA0MDQ0MVowbDELMAkG
A1UEBhMCS1IxDjAMBgNVBAgTBVNFT1VMMQ8wDQYDVQQKEwZnaXRodWIxFDASBgNV
BAMTC2dpdHZpbGxhZ2VyMSYwJAYJKoZIhvcNAQkBFhdnaXR2aWxsYWdlcmVAZ2l0
aHViLmNvbTCBnzANBgkqhkiG9w0BAQEFAAOBjQAwgYkCgYEAtjuLL9NBNsDVQMQi
uC4Odxc1PGWdQf3aLoXNfAoablPImKcg9aSikXtR51cHqa0sWVNRkiCs1bUp5bn7
ttl4jSIxoYlVq6bwF/H2E/7xxGC1jYgm/yqfLti9TmtE7j03pSrQhCiBA0n7A+v5
jQCl9FQZsK2zakh0yqSvNSeljLMCAwEAATANBgkqhkiG9w0BAQQFAAOBgQAq8nrV
tdWXEupKP2hm6vLaLHzDmiiUXLAmpFdaMq1a/lmgNG1JEqmftAHLQ8uUFzumw+17
nOCw01qRT2uCgqRxuwLY7MD4wk0cLrTbH9Ho+ZCX069rVsFrC0G8dYRw19vMcG7F
Wk0Ie+2MpUYvCdXUdAZ+OR/Jl/R01Wfqu4iU/A==
-----END CERTIFICATE-----
-----BEGIN PRIVATE KEY-----
MIICdQIBADANBgkqhkiG9w0BAQEFAASCAl8wggJbAgEAAoGBALY7iy/TQTbA1UDE
IrguDncXNTxlnUH92i6FzXwKGm5TyJinIPWkopF7UedXB6mtLFlTUZIgrNW1KeW5
+7bZeI0iMaGJVaum8Bfx9hP+8cRgtY2IJv8qny7YvU5rRO49N6Uq0IQogQNJ+wPr
+Y0ApfRUGbCts2pIdMqkrzUnpYyzAgMBAAECgYBnOXVPQugm3rYteKx+DcCt3tyN
+LVKg0QKpEpQX9y28Aipx8nYu0hHBkbPtzGlAG4lrxd+obmlWHiCI4ac/bTVsEfn
pW/KMsxuSjseWIAbHI/IixhZOHRQjDUBY8CInaiRe5F4lWZnwk80B3mCdARkPuYU
NW/bbX4graQLsejEiQJBAOEiCkHhlYBPFxStjhfSIBC5jGnyXhD2R9b+L/HYQ/dP
QEEISMWvgagbB8eUddFqnkwa4itvqJO90/3bYNVzfcUCQQDPN71rIyFMM2skEV8v
N9XucPdzXW5Dqp6U3KTBOeFnvP8pcHx98oJvKXysA8LQtZ70UZ6zxweddufJFrKQ
xEAXAkBzmDjQDvXmRbXCJkLZNEjGjZ7tH0bxSqMkXqtbcAGl0Alb2tcSucTG/eoG
rdG4zxesV/lc+B4Ejel1ZNjZgE1JAkAyDh3kfnTxqk4MRWH/zvYPhhxQMtaK4/Ew
tmfaAThQzde5U+HOrsERRy1FhBcQQX8nN3wlo0NUpz9wVNpHnBB7AkAY1841cqhA
skBlVjJ/ydt7p2A+HfzfND+ffeTgoksE4djwmjmmIlqMxzBDWK0jsWbxpHY2lkHk
yFT7MyZxBB+o
-----END PRIVATE KEY-----
-----BEGIN DH PARAMETERS-----
MIGHAoGBAIfQls22QmDmaxRWepvlMpi5FMHbeVxsaLh4qL6sVFM63pzSR+p5vOZ5
1oRRus6xp/YLwL1NXIAgRA3Q8Mgac6muC6XpDiX2SwUdWUK1CD8L/BV9fCSGz2le
109B/8v+lWQrn6EHJaDwKk5ik0WhFDiOhHQrdMztYOuUQkwDNmIbAgEC
-----END DH PARAMETERS-----
